target datalayout = "e-m:e-p270:32:32-p271:32:32-p272:64:64-i64:64-i128:128-f80:128-n8:16:32:64-S128"
target triple = "x86_64-pc-linux-gnu"

%struct.cli_events = type { ptr, %struct.cli_event, i64, i32, i32 }
%struct.cli_event = type { ptr, %union.ev_val, i32, i16 }
%union.ev_val = type { ptr }

@.str.1 = private unnamed_addr constant [43 x i8] c"events: out of memory allocating %u bytes\0A\00", align 1

; Function Attrs: nounwind uwtable
define void @cli_event_error_oom(ptr noundef %0, i32 noundef %1) #0 {
  %3 = alloca ptr, align 8
  %4 = alloca i32, align 4
  store ptr %0, ptr %3, align 8, !tbaa !7
  store i32 %1, ptr %4, align 4, !tbaa !3
  %5 = load ptr, ptr %3, align 8, !tbaa !7
  %6 = icmp ne ptr %5, null
  br i1 %6, label %8, label %7

7:                                                ; preds = %2
  br label %23

8:                                                ; preds = %2
  %9 = load i32, ptr %4, align 4, !tbaa !3
  %10 = zext i32 %9 to i64
  %11 = load ptr, ptr %3, align 8, !tbaa !7
  %12 = getelementptr inbounds nuw %struct.cli_events, ptr %11, i32 0, i32 2
  %13 = load i64, ptr %12, align 8, !tbaa !18
  %14 = add i64 %13, %10
  store i64 %14, ptr %12, align 8, !tbaa !18
  %15 = load ptr, ptr %3, align 8, !tbaa !7
  %16 = getelementptr inbounds nuw %struct.cli_events, ptr %15, i32 0, i32 4
  %17 = load i32, ptr %16, align 4, !tbaa !19
  %18 = add i32 %17, 1
  store i32 %18, ptr %16, align 4, !tbaa !19
  %19 = load i32, ptr %4, align 4, !tbaa !3
  %20 = icmp ne i32 %19, 0
  br i1 %20, label %21, label %23

21:                                               ; preds = %8
  %22 = load i32, ptr %4, align 4, !tbaa !3
  call void (ptr, ...) @cli_errmsg(ptr noundef @.str.1, i32 noundef %22)
  br label %23

23:                                               ; preds = %7, %21, %8
  ret void
}