; Function Attrs: nounwind uwtable
define void @cli_event_error_oom(ptr noundef %0, i32 noundef %1) local_unnamed_addr #5 {
  %.not = icmp eq ptr %0, null
  br i1 %.not, label %12, label %3

3:                                                ; preds = %2
  %4 = zext i32 %1 to i64
  %5 = getelementptr inbounds nuw i8, ptr %0, i64 32
  %6 = load i64, ptr %5, align 8, !tbaa !15
  %7 = add i64 %6, %4
  store i64 %7, ptr %5, align 8, !tbaa !15
  %8 = getelementptr inbounds nuw i8, ptr %0, i64 44
  %9 = load i32, ptr %8, align 4, !tbaa !16
  %10 = add i32 %9, 1
  store i32 %10, ptr %8, align 4, !tbaa !16
  %.not6 = icmp eq i32 %1, 0
  br i1 %.not6, label %12, label %11

11:                                               ; preds = %3
  tail call void (ptr, ...) @cli_errmsg(ptr noundef nonnull @.str.1, i32 noundef %1) #14
  br label %12

12:                                               ; preds = %2, %11, %3
  ret void
}